target datalayout = "e-m:e-p270:32:32-p271:32:32-p272:64:64-i64:64-i128:128-f80:128-n8:16:32:64-S128"
target triple = "x86_64-pc-linux-gnu"

%struct.FSMAddress = type { i32, i32 }

@LocalBufferBlockPointers = external global ptr, align 8
@BufferBlocks = external global ptr, align 8

; Function Attrs: inlinehint nounwind uwtable
define internal ptr @BufferGetBlock(i32 noundef %0) #4 {
  %2 = alloca ptr, align 8
  %3 = alloca i32, align 4
  store i32 %0, ptr %3, align 4
  %4 = load i32, ptr %3, align 4
  %5 = icmp slt i32 %4, 0
  br i1 %5, label %6, label %14

6:                                                ; preds = %1
  %7 = load ptr, ptr @LocalBufferBlockPointers, align 8
  %8 = load i32, ptr %3, align 4
  %9 = sub i32 0, %8
  %10 = sub i32 %9, 1
  %11 = sext i32 %10 to i64
  %12 = getelementptr inbounds ptr, ptr %7, i64 %11
  %13 = load ptr, ptr %12, align 8
  store ptr %13, ptr %2, align 8
  br label %21

14:                                               ; preds = %1
  %15 = load ptr, ptr @BufferBlocks, align 8
  %16 = load i32, ptr %3, align 4
  %17 = sub i32 %16, 1
  %18 = sext i32 %17 to i64
  %19 = mul i64 %18, 8192
  %20 = getelementptr inbounds nuw i8, ptr %15, i64 %19
  store ptr %20, ptr %2, align 8
  br label %21

21:                                               ; preds = %14, %6
  %22 = load ptr, ptr %2, align 8
  ret ptr %22
}

; Function Attrs: inlinehint nounwind uwtable
define internal ptr @BufferGetPage(i32 noundef %0) #4 {
  %2 = alloca i32, align 4
  store i32 %0, ptr %2, align 4
  %3 = load i32, ptr %2, align 4
  %4 = call ptr @BufferGetBlock(i32 noundef %3)
  ret ptr %4
}

; Function Attrs: nounwind uwtable
define internal i32 @fsm_set_and_search(ptr noundef %0, i64 %1, i16 noundef zeroext %2, i8 noundef zeroext %3, i8 noundef zeroext %4) #0 {
  %6 = alloca %struct.FSMAddress, align 4
  %7 = alloca ptr, align 8
  %8 = alloca i16, align 2
  %9 = alloca i8, align 1
  %10 = alloca i8, align 1
  %11 = alloca i32, align 4
  %12 = alloca ptr, align 8
  %13 = alloca i32, align 4
  store i64 %1, ptr %6, align 4
  store ptr %0, ptr %7, align 8
  store i16 %2, ptr %8, align 2
  store i8 %3, ptr %9, align 1
  store i8 %4, ptr %10, align 1
  call void @llvm.lifetime.start.p0(i64 4, ptr %11) #8
  call void @llvm.lifetime.start.p0(i64 8, ptr %12) #8
  call void @llvm.lifetime.start.p0(i64 4, ptr %13) #8
  store i32 -1, ptr %13, align 4
  %14 = load ptr, ptr %7, align 8
  %15 = load i64, ptr %6, align 4
  %16 = call i32 @fsm_readbuf(ptr noundef %14, i64 %15, i1 noundef zeroext true)
  store i32 %16, ptr %11, align 4
  %17 = load i32, ptr %11, align 4
  call void @LockBuffer(i32 noundef %17, i32 noundef 2)
  %18 = load i32, ptr %11, align 4
  %19 = call ptr @BufferGetPage(i32 noundef %18)
  store ptr %19, ptr %12, align 8
  %20 = load ptr, ptr %12, align 8
  %21 = load i16, ptr %8, align 2
  %22 = zext i16 %21 to i32
  %23 = load i8, ptr %9, align 1
  %24 = call zeroext i1 @fsm_set_avail(ptr noundef %20, i32 noundef %22, i8 noundef zeroext %23)
  br i1 %24, label %25, label %27

25:                                               ; preds = %5
  %26 = load i32, ptr %11, align 4
  call void @MarkBufferDirtyHint(i32 noundef %26, i1 noundef zeroext false)
  br label %27

27:                                               ; preds = %25, %5
  %28 = load i8, ptr %10, align 1
  %29 = zext i8 %28 to i32
  %30 = icmp ne i32 %29, 0
  br i1 %30, label %31, label %38

31:                                               ; preds = %27
  %32 = load i32, ptr %11, align 4
  %33 = load i8, ptr %10, align 1
  %34 = getelementptr inbounds nuw %struct.FSMAddress, ptr %6, i32 0, i32 0
  %35 = load i32, ptr %34, align 4
  %36 = icmp eq i32 %35, 0
  %37 = call i32 @fsm_search_avail(i32 noundef %32, i8 noundef zeroext %33, i1 noundef zeroext %36, i1 noundef zeroext true)
  store i32 %37, ptr %13, align 4
  br label %38

38:                                               ; preds = %31, %27
  %39 = load i32, ptr %11, align 4
  call void @UnlockReleaseBuffer(i32 noundef %39)
  %40 = load i32, ptr %13, align 4
  call void @llvm.lifetime.end.p0(i64 4, ptr %13) #8
  call void @llvm.lifetime.end.p0(i64 8, ptr %12) #8
  call void @llvm.lifetime.end.p0(i64 4, ptr %11) #8
  ret i32 %40
}

; Function Attrs: nounwind uwtable
define internal i64 @fsm_get_location(i32 noundef %0, ptr noundef %1) #0 {
  %3 = alloca %struct.FSMAddress, align 4
  %4 = alloca i32, align 4
  %5 = alloca ptr, align 8
  store i32 %0, ptr %4, align 4
  store ptr %1, ptr %5, align 8
  %6 = getelementptr inbounds nuw %struct.FSMAddress, ptr %3, i32 0, i32 0
  store i32 0, ptr %6, align 4
  %7 = load i32, ptr %4, align 4
  %8 = zext i32 %7 to i64
  %9 = udiv i64 %8, 4069
  %10 = trunc i64 %9 to i32
  %11 = getelementptr inbounds nuw %struct.FSMAddress, ptr %3, i32 0, i32 1
  store i32 %10, ptr %11, align 4
  %12 = load i32, ptr %4, align 4
  %13 = zext i32 %12 to i64
  %14 = urem i64 %13, 4069
  %15 = trunc i64 %14 to i16
  %16 = load ptr, ptr %5, align 8
  store i16 %15, ptr %16, align 2
  %17 = load i64, ptr %3, align 4
  ret i64 %17
}

; Function Attrs: nounwind uwtable
define internal zeroext i8 @fsm_space_avail_to_cat(i64 noundef %0) #0 {
  %2 = alloca i8, align 1
  %3 = alloca i64, align 8
  %4 = alloca i32, align 4
  %5 = alloca i32, align 4
  store i64 %0, ptr %3, align 8
  call void @llvm.lifetime.start.p0(i64 4, ptr %4) #8
  %6 = load i64, ptr %3, align 8
  %7 = icmp uge i64 %6, 8160
  br i1 %7, label %8, label %9

8:                                                ; preds = %1
  store i8 -1, ptr %2, align 1
  store i32 1, ptr %5, align 4
  br label %19

9:                                                ; preds = %1
  %10 = load i64, ptr %3, align 8
  %11 = udiv i64 %10, 32
  %12 = trunc i64 %11 to i32
  store i32 %12, ptr %4, align 4
  %13 = load i32, ptr %4, align 4
  %14 = icmp sgt i32 %13, 254
  br i1 %14, label %15, label %16

15:                                               ; preds = %9
  store i32 254, ptr %4, align 4
  br label %16

16:                                               ; preds = %15, %9
  %17 = load i32, ptr %4, align 4
  %18 = trunc i32 %17 to i8
  store i8 %18, ptr %2, align 1
  store i32 1, ptr %5, align 4
  br label %19

19:                                               ; preds = %16, %8
  call void @llvm.lifetime.end.p0(i64 4, ptr %4) #8
  %20 = load i8, ptr %2, align 1
  ret i8 %20
}

; Function Attrs: nounwind uwtable
define dso_local void @RecordPageWithFreeSpace(ptr noundef %0, i32 noundef %1, i64 noundef %2) #0 {
  %4 = alloca ptr, align 8
  %5 = alloca i32, align 4
  %6 = alloca i64, align 8
  %7 = alloca i32, align 4
  %8 = alloca %struct.FSMAddress, align 4
  %9 = alloca i16, align 2
  %10 = alloca %struct.FSMAddress, align 4
  store ptr %0, ptr %4, align 8
  store i32 %1, ptr %5, align 4
  store i64 %2, ptr %6, align 8
  call void @llvm.lifetime.start.p0(i64 4, ptr %7) #8
  %11 = load i64, ptr %6, align 8
  %12 = call zeroext i8 @fsm_space_avail_to_cat(i64 noundef %11)
  %13 = zext i8 %12 to i32
  store i32 %13, ptr %7, align 4
  call void @llvm.lifetime.start.p0(i64 8, ptr %8) #8
  call void @llvm.lifetime.start.p0(i64 2, ptr %9) #8
  call void @llvm.lifetime.start.p0(i64 8, ptr %10) #8
  %14 = load i32, ptr %5, align 4
  %15 = call i64 @fsm_get_location(i32 noundef %14, ptr noundef %9)
  store i64 %15, ptr %10, align 4
  call void @llvm.memcpy.p0.p0.i64(ptr align 4 %8, ptr align 4 %10, i64 8, i1 false)
  call void @llvm.lifetime.end.p0(i64 8, ptr %10) #8
  %16 = load ptr, ptr %4, align 8
  %17 = load i16, ptr %9, align 2
  %18 = load i32, ptr %7, align 4
  %19 = trunc i32 %18 to i8
  %20 = load i64, ptr %8, align 4
  %21 = call i32 @fsm_set_and_search(ptr noundef %16, i64 %20, i16 noundef zeroext %17, i8 noundef zeroext %19, i8 noundef zeroext 0)
  call void @llvm.lifetime.end.p0(i64 2, ptr %9) #8
  call void @llvm.lifetime.end.p0(i64 8, ptr %8) #8
  call void @llvm.lifetime.end.p0(i64 4, ptr %7) #8
  ret void
}