; Function Attrs: nounwind uwtable
define dso_local void @RecordPageWithFreeSpace(ptr noundef %0, i32 noundef %1, i64 noundef %2) local_unnamed_addr #0 {
  %4 = icmp ugt i64 %2, 8159
  %5 = lshr i64 %2, 5
  %6 = trunc nuw i64 %5 to i8
  %.0.i = select i1 %4, i8 -1, i8 %6
  %7 = udiv i32 %1, 4069
  %8 = urem i32 %1, 4069
  %.sroa.2.0.insert.ext.i = zext nneg i32 %7 to i64
  %.sroa.2.0.insert.shift.i = shl nuw nsw i64 %.sroa.2.0.insert.ext.i, 32
  %9 = tail call fastcc i32 @fsm_readbuf(ptr noundef %0, i64 %.sroa.2.0.insert.shift.i, i1 noundef zeroext true)
  tail call void @LockBuffer(i32 noundef %9, i32 noundef 2) #8
  %10 = icmp slt i32 %9, 0
  br i1 %10, label %11, label %17

11:                                               ; preds = %3
  %12 = load ptr, ptr @LocalBufferBlockPointers, align 8
  %13 = xor i32 %9, -1
  %14 = zext nneg i32 %13 to i64
  %15 = getelementptr inbounds nuw ptr, ptr %12, i64 %14
  %16 = load ptr, ptr %15, align 8
  br label %BufferGetPage.exit.i

17:                                               ; preds = %3
  %18 = load ptr, ptr @BufferBlocks, align 8
  %19 = add nsw i32 %9, -1
  %20 = sext i32 %19 to i64
  %21 = shl nsw i64 %20, 13
  %22 = getelementptr inbounds nuw i8, ptr %18, i64 %21
  br label %BufferGetPage.exit.i

BufferGetPage.exit.i:                             ; preds = %17, %11
  %.0.i.i.i = phi ptr [ %16, %11 ], [ %22, %17 ]
  %23 = tail call zeroext i1 @fsm_set_avail(ptr noundef %.0.i.i.i, i32 noundef %8, i8 noundef zeroext %.0.i) #8
  br i1 %23, label %24, label %fsm_set_and_search.exit

24:                                               ; preds = %BufferGetPage.exit.i
  tail call void @MarkBufferDirtyHint(i32 noundef %9, i1 noundef zeroext false) #8
  br label %fsm_set_and_search.exit

fsm_set_and_search.exit:                          ; preds = %BufferGetPage.exit.i, %24
  tail call void @UnlockReleaseBuffer(i32 noundef %9) #8
  ret void
}